; ModuleID = 'bench/flac/original/getopt1.ll'
source_filename = "bench/flac/original/getopt1.ll"
target datalayout = "e-m:e-p270:32:32-p271:32:32-p272:64:64-i64:64-i128:128-f80:128-n8:16:32:64-S128"
target triple = "x86_64-pc-linux-gnu"

; Function Attrs: nounwind sspstrong uwtable
define dso_local i32 @share__getopt_long(i32 noundef %0, ptr noundef %1, ptr noundef %2, ptr noundef %3, ptr noundef %4) local_unnamed_addr #0 {
  %6 = tail call i32 @share___getopt_internal(i32 noundef %0, ptr noundef %1, ptr noundef %2, ptr noundef %3, ptr noundef %4, i32 noundef 0) #2
  ret i32 %6
}

declare i32 @share___getopt_internal(i32 noundef, ptr noundef, ptr noundef, ptr noundef, ptr noundef, i32 noundef) local_unnamed_addr #1

; Function Attrs: nounwind sspstrong uwtable
define dso_local i32 @share__getopt_long_only(i32 noundef %0, ptr noundef %1, ptr noundef %2, ptr noundef %3, ptr noundef %4) local_unnamed_addr #0 {
  %6 = tail call i32 @share___getopt_internal(i32 noundef %0, ptr noundef %1, ptr noundef %2, ptr noundef %3, ptr noundef %4, i32 noundef 1) #2
  ret i32 %6
}


!llvm.module.flags = !{!0, !1, !2, !3}

!0 = !{i32 1, !"wchar_size", i32 4}
!1 = !{i32 8, !"PIC Level", i32 2}
!2 = !{i32 7, !"PIE Level", i32 2}
!3 = !{i32 7, !"uwtable", i32 2}
